; Function Attrs: mustprogress nounwind uwtable
define dso_local void @_ZN4llvm11SlotTracker16CreateModuleSlotEPKNS_11GlobalValueE(ptr noundef nonnull align 8 dereferenceable(356) %0, ptr noundef %1) local_unnamed_addr #1 align 2 {
  %3 = alloca ptr, align 8
  %4 = getelementptr inbounds nuw i8, ptr %0, i64 128
  %5 = load i32, ptr %4, align 8
  %6 = add i32 %5, 1
  store i32 %6, ptr %4, align 8
  %7 = getelementptr inbounds nuw i8, ptr %0, i64 104
  store ptr %1, ptr %3, align 8
  %8 = load ptr, ptr %7, align 8
  %9 = getelementptr inbounds i8, ptr %0, i64 120
  %10 = load i32, ptr %9, align 8
  %11 = icmp eq i32 %10, 0
  br i1 %11, label %_ZN4llvm12DenseMapBaseINS_8DenseMapIPKNS_5ValueEjNS_12DenseMapInfoIS4_vEENS_6detail12DenseMapPairIS4_jEEEES4_jS6_S9_E15LookupBucketForIS4_EEbRKT_RPS9_.exit.i.i, label %12

12:                                               ; preds = %2
  %13 = ptrtoint ptr %1 to i64
  %14 = trunc i64 %13 to i32
  %15 = lshr i32 %14, 4
  %16 = lshr i32 %14, 9
  %17 = xor i32 %15, %16
  %18 = add i32 %10, -1
  %.02733.i.i.i.i = and i32 %18, %17
  %19 = zext nneg i32 %.02733.i.i.i.i to i64
  %20 = getelementptr inbounds %"struct.llvm::detail::DenseMapPair", ptr %8, i64 %19
  %21 = load ptr, ptr %20, align 8
  %22 = icmp eq ptr %1, %21
  br i1 %22, label %_ZN4llvm12DenseMapBaseINS_8DenseMapIPKNS_5ValueEjNS_12DenseMapInfoIS4_vEENS_6detail12DenseMapPairIS4_jEEEES4_jS6_S9_EixEOS4_.exit, label %.lr.ph.i.i.i.i

.lr.ph.i.i.i.i:                                   ; preds = %12, %28
  %23 = phi ptr [ %35, %28 ], [ %21, %12 ]
  %24 = phi ptr [ %34, %28 ], [ %20, %12 ]
  %.02736.i.i.i.i = phi i32 [ %.027.i.i.i.i, %28 ], [ %.02733.i.i.i.i, %12 ]
  %.02635.i.i.i.i = phi i32 [ %31, %28 ], [ 1, %12 ]
  %.02834.i.i.i.i = phi ptr [ %spec.select.i.i.i.i, %28 ], [ null, %12 ]
  %25 = icmp eq ptr %23, inttoptr (i64 -4096 to ptr)
  br i1 %25, label %26, label %28

26:                                               ; preds = %.lr.ph.i.i.i.i
  %.not.i.i.i.i = icmp eq ptr %.02834.i.i.i.i, null
  %27 = select i1 %.not.i.i.i.i, ptr %24, ptr %.02834.i.i.i.i
  br label %_ZN4llvm12DenseMapBaseINS_8DenseMapIPKNS_5ValueEjNS_12DenseMapInfoIS4_vEENS_6detail12DenseMapPairIS4_jEEEES4_jS6_S9_E15LookupBucketForIS4_EEbRKT_RPS9_.exit.i.i

28:                                               ; preds = %.lr.ph.i.i.i.i
  %29 = icmp eq ptr %23, inttoptr (i64 -8192 to ptr)
  %30 = icmp eq ptr %.02834.i.i.i.i, null
  %or.cond.not.i.i.i.i = select i1 %29, i1 %30, i1 false
  %spec.select.i.i.i.i = select i1 %or.cond.not.i.i.i.i, ptr %24, ptr %.02834.i.i.i.i
  %31 = add i32 %.02635.i.i.i.i, 1
  %32 = add i32 %.02635.i.i.i.i, %.02736.i.i.i.i
  %.027.i.i.i.i = and i32 %32, %18
  %33 = zext i32 %.027.i.i.i.i to i64
  %34 = getelementptr inbounds %"struct.llvm::detail::DenseMapPair", ptr %8, i64 %33
  %35 = load ptr, ptr %34, align 8
  %36 = icmp eq ptr %1, %35
  br i1 %36, label %_ZN4llvm12DenseMapBaseINS_8DenseMapIPKNS_5ValueEjNS_12DenseMapInfoIS4_vEENS_6detail12DenseMapPairIS4_jEEEES4_jS6_S9_EixEOS4_.exit, label %.lr.ph.i.i.i.i, !llvm.loop !17

_ZN4llvm12DenseMapBaseINS_8DenseMapIPKNS_5ValueEjNS_12DenseMapInfoIS4_vEENS_6detail12DenseMapPairIS4_jEEEES4_jS6_S9_E15LookupBucketForIS4_EEbRKT_RPS9_.exit.i.i: ; preds = %26, %2
  %.sink.i.i.i.i = phi ptr [ %27, %26 ], [ null, %2 ]
  %37 = call noundef ptr @_ZN4llvm12DenseMapBaseINS_8DenseMapIPKNS_5ValueEjNS_12DenseMapInfoIS4_vEENS_6detail12DenseMapPairIS4_jEEEES4_jS6_S9_E20InsertIntoBucketImplIS4_EEPS9_RKS4_RKT_SD_(ptr noundef nonnull align 1 dereferenceable(1) %7, ptr noundef nonnull align 8 dereferenceable(8) %3, ptr noundef nonnull align 8 dereferenceable(8) %3, ptr noundef %.sink.i.i.i.i)
  %38 = load ptr, ptr %3, align 8
  store ptr %38, ptr %37, align 8
  %39 = getelementptr inbounds nuw i8, ptr %37, i64 8
  store i32 0, ptr %39, align 4
  br label %_ZN4llvm12DenseMapBaseINS_8DenseMapIPKNS_5ValueEjNS_12DenseMapInfoIS4_vEENS_6detail12DenseMapPairIS4_jEEEES4_jS6_S9_EixEOS4_.exit

_ZN4llvm12DenseMapBaseINS_8DenseMapIPKNS_5ValueEjNS_12DenseMapInfoIS4_vEENS_6detail12DenseMapPairIS4_jEEEES4_jS6_S9_EixEOS4_.exit: ; preds = %28, %12, %_ZN4llvm12DenseMapBaseINS_8DenseMapIPKNS_5ValueEjNS_12DenseMapInfoIS4_vEENS_6detail12DenseMapPairIS4_jEEEES4_jS6_S9_E15LookupBucketForIS4_EEbRKT_RPS9_.exit.i.i
  %.0.i.i = phi ptr [ %37, %_ZN4llvm12DenseMapBaseINS_8DenseMapIPKNS_5ValueEjNS_12DenseMapInfoIS4_vEENS_6detail12DenseMapPairIS4_jEEEES4_jS6_S9_E15LookupBucketForIS4_EEbRKT_RPS9_.exit.i.i ], [ %20, %12 ], [ %34, %28 ]
  %40 = getelementptr inbounds nuw i8, ptr %.0.i.i, i64 8
  store i32 %5, ptr %40, align 4
  ret void
}